target datalayout = "e-m:e-p270:32:32-p271:32:32-p272:64:64-i64:64-i128:128-f80:128-n8:16:32:64-S128"
target triple = "x86_64-pc-linux-gnu"

@.str.30 = private unnamed_addr constant [32 x i8] c"../openssl/test/endecode_test.c\00", align 1
@.str.321 = private unnamed_addr constant [3 x i8] c", \00", align 1

; Function Attrs: nounwind uwtable
define internal void @collect_name(ptr noundef %0, ptr noundef %1) #0 {
  %3 = alloca ptr, align 8
  %4 = alloca ptr, align 8
  %5 = alloca ptr, align 8
  %6 = alloca ptr, align 8
  %7 = alloca i64, align 8
  %8 = alloca i32, align 4
  store ptr %0, ptr %3, align 8, !tbaa !4
  store ptr %1, ptr %4, align 8, !tbaa !31
  call void @llvm.lifetime.start.p0(i64 8, ptr %5) #7
  %9 = load ptr, ptr %4, align 8, !tbaa !31
  store ptr %9, ptr %5, align 8, !tbaa !59
  call void @llvm.lifetime.start.p0(i64 8, ptr %6) #7
  call void @llvm.lifetime.start.p0(i64 8, ptr %7) #7
  %10 = load ptr, ptr %3, align 8, !tbaa !4
  %11 = call i64 @strlen(ptr noundef %10) #8
  store i64 %11, ptr %7, align 8, !tbaa !27
  %12 = load ptr, ptr %5, align 8, !tbaa !59
  %13 = load ptr, ptr %12, align 8, !tbaa !4
  %14 = icmp ne ptr %13, null
  br i1 %14, label %15, label %22

15:                                               ; preds = %2
  %16 = load ptr, ptr %5, align 8, !tbaa !59
  %17 = load ptr, ptr %16, align 8, !tbaa !4
  %18 = call i64 @strlen(ptr noundef %17) #8
  %19 = add i64 %18, 2
  %20 = load i64, ptr %7, align 8, !tbaa !27
  %21 = add i64 %20, %19
  store i64 %21, ptr %7, align 8, !tbaa !27
  br label %22

22:                                               ; preds = %15, %2
  %23 = load i64, ptr %7, align 8, !tbaa !27
  %24 = add i64 %23, 1
  store i64 %24, ptr %7, align 8, !tbaa !27
  %25 = load ptr, ptr %5, align 8, !tbaa !59
  %26 = load ptr, ptr %25, align 8, !tbaa !4
  %27 = load i64, ptr %7, align 8, !tbaa !27
  %28 = call ptr @CRYPTO_realloc(ptr noundef %26, i64 noundef %27, ptr noundef @.str.30, i32 noundef 508)
  store ptr %28, ptr %6, align 8, !tbaa !4
  %29 = load ptr, ptr %6, align 8, !tbaa !4
  %30 = icmp eq ptr %29, null
  br i1 %30, label %31, label %32

31:                                               ; preds = %22
  store i32 1, ptr %8, align 4
  br label %49

32:                                               ; preds = %22
  %33 = load ptr, ptr %5, align 8, !tbaa !59
  %34 = load ptr, ptr %33, align 8, !tbaa !4
  %35 = icmp ne ptr %34, null
  br i1 %35, label %36, label %42

36:                                               ; preds = %32
  %37 = load ptr, ptr %6, align 8, !tbaa !4
  %38 = call ptr @strcat(ptr noundef %37, ptr noundef @.str.321) #7
  %39 = load ptr, ptr %6, align 8, !tbaa !4
  %40 = load ptr, ptr %3, align 8, !tbaa !4
  %41 = call ptr @strcat(ptr noundef %39, ptr noundef %40) #7
  br label %46

42:                                               ; preds = %32
  %43 = load ptr, ptr %6, align 8, !tbaa !4
  %44 = load ptr, ptr %3, align 8, !tbaa !4
  %45 = call ptr @strcpy(ptr noundef %43, ptr noundef %44) #7
  br label %46

46:                                               ; preds = %42, %36
  %47 = load ptr, ptr %6, align 8, !tbaa !4
  %48 = load ptr, ptr %5, align 8, !tbaa !59
  store ptr %47, ptr %48, align 8, !tbaa !4
  store i32 0, ptr %8, align 4
  br label %49

49:                                               ; preds = %46, %31
  call void @llvm.lifetime.end.p0(i64 8, ptr %7) #7
  call void @llvm.lifetime.end.p0(i64 8, ptr %6) #7
  call void @llvm.lifetime.end.p0(i64 8, ptr %5) #7
  %50 = load i32, ptr %8, align 4
  switch i32 %50, label %52 [
    i32 0, label %51
    i32 1, label %51
  ]

51:                                               ; preds = %49, %49
  ret void

52:                                               ; preds = %49
  unreachable
}