; Function Attrs: nounwind uwtable
define internal void @collect_name(ptr noundef readonly captures(none) %0, ptr noundef captures(none) %1) #1 {
  %3 = tail call i64 @strlen(ptr noundef nonnull dereferenceable(1) %0) #9
  %4 = load ptr, ptr %1, align 8, !tbaa !36
  %.not = icmp eq ptr %4, null
  br i1 %.not, label %9, label %5

5:                                                ; preds = %2
  %6 = tail call i64 @strlen(ptr noundef nonnull dereferenceable(1) %4) #9
  %7 = add i64 %3, 2
  %8 = add i64 %7, %6
  br label %9

9:                                                ; preds = %5, %2
  %.0 = phi i64 [ %8, %5 ], [ %3, %2 ]
  %10 = add i64 %.0, 1
  %11 = tail call ptr @CRYPTO_realloc(ptr noundef %4, i64 noundef %10, ptr noundef nonnull @.str.30, i32 noundef 508) #8
  %12 = icmp eq ptr %11, null
  br i1 %12, label %20, label %13

13:                                               ; preds = %9
  %14 = load ptr, ptr %1, align 8, !tbaa !36
  %.not18 = icmp eq ptr %14, null
  br i1 %.not18, label %17, label %15

15:                                               ; preds = %13
  %strlen = tail call i64 @strlen(ptr nonnull dereferenceable(1) %11)
  %endptr = getelementptr inbounds i8, ptr %11, i64 %strlen
  tail call void @llvm.memcpy.p0.p0.i64(ptr noundef nonnull align 1 dereferenceable(3) %endptr, ptr noundef nonnull align 1 dereferenceable(3) @.str.321, i64 3, i1 false)
  %16 = tail call ptr @strcat(ptr noundef nonnull dereferenceable(1) %11, ptr noundef nonnull dereferenceable(1) %0) #8
  br label %19

17:                                               ; preds = %13
  %18 = tail call ptr @strcpy(ptr noundef nonnull dereferenceable(1) %11, ptr noundef nonnull dereferenceable(1) %0) #8
  br label %19

19:                                               ; preds = %17, %15
  store ptr %11, ptr %1, align 8, !tbaa !36
  br label %20

20:                                               ; preds = %9, %19
  ret void
}